target datalayout = "e-m:e-p270:32:32-p271:32:32-p272:64:64-i64:64-i128:128-f80:128-n8:16:32:64-S128"
target triple = "x86_64-pc-linux-gnu"

%struct.cl_fmap = type { ptr, ptr, ptr, i64, i64, i64, i64, i8, i8, i8, i64, i64, i64, i64, ptr, ptr, ptr, ptr, ptr, ptr, ptr, i8, [16 x i8], i8, [20 x i8], i8, [32 x i8], ptr, ptr }

@.str.198 = private unnamed_addr constant [42 x i8] c"SIS: Unable to read lengths and pointers\0A\00", align 1
@.str.199 = private unnamed_addr constant [24 x i8] c"\09%s (%s - @%x, len %d)\0A\00", align 1

; Function Attrs: nounwind uwtable
define internal void @fmap_unneed_off(ptr noundef %0, i64 noundef %1, i64 noundef %2) #0 {
  %4 = alloca ptr, align 8
  %5 = alloca i64, align 8
  %6 = alloca i64, align 8
  store ptr %0, ptr %4, align 8
  store i64 %1, ptr %5, align 8
  store i64 %2, ptr %6, align 8
  %7 = load ptr, ptr %4, align 8
  %8 = getelementptr inbounds %struct.cl_fmap, ptr %7, i32 0, i32 18
  %9 = load ptr, ptr %8, align 8
  %10 = load ptr, ptr %4, align 8
  %11 = load i64, ptr %5, align 8
  %12 = load i64, ptr %6, align 8
  call void %9(ptr noundef %10, i64 noundef %11, i64 noundef %12)
  ret void
}

; Function Attrs: nounwind uwtable
define internal ptr @fmap_need_off(ptr noundef %0, i64 noundef %1, i64 noundef %2) #0 {
  %4 = alloca ptr, align 8
  %5 = alloca i64, align 8
  %6 = alloca i64, align 8
  store ptr %0, ptr %4, align 8
  store i64 %1, ptr %5, align 8
  store i64 %2, ptr %6, align 8
  %7 = load ptr, ptr %4, align 8
  %8 = getelementptr inbounds %struct.cl_fmap, ptr %7, i32 0, i32 15
  %9 = load ptr, ptr %8, align 8
  %10 = load ptr, ptr %4, align 8
  %11 = load i64, ptr %5, align 8
  %12 = load i64, ptr %6, align 8
  %13 = call ptr %9(ptr noundef %10, i64 noundef %11, i64 noundef %12, i32 noundef 1)
  ret ptr %13
}

; Function Attrs: nounwind uwtable
define internal i32 @spamsisnames(ptr noundef %0, i64 noundef %1, i16 noundef zeroext %2, ptr noundef %3) #0 {
  %5 = alloca i32, align 4
  %6 = alloca ptr, align 8
  %7 = alloca i64, align 8
  %8 = alloca i16, align 2
  %9 = alloca ptr, align 8
  %10 = alloca ptr, align 8
  %11 = alloca ptr, align 8
  %12 = alloca i32, align 4
  %13 = alloca i32, align 4
  %14 = alloca ptr, align 8
  store ptr %0, ptr %6, align 8
  store i64 %1, ptr %7, align 8
  store i16 %2, ptr %8, align 2
  store ptr %3, ptr %9, align 8
  %15 = load i16, ptr %8, align 2
  %16 = zext i16 %15 to i64
  %17 = mul i64 4, %16
  %18 = mul i64 %17, 2
  %19 = trunc i64 %18 to i32
  store i32 %19, ptr %13, align 4
  %20 = load ptr, ptr %6, align 8
  %21 = load i64, ptr %7, align 8
  %22 = load i32, ptr %13, align 4
  %23 = zext i32 %22 to i64
  %24 = call ptr @fmap_need_off(ptr noundef %20, i64 noundef %21, i64 noundef %23)
  store ptr %24, ptr %11, align 8
  %25 = icmp ne ptr %24, null
  br i1 %25, label %27, label %26

26:                                               ; preds = %4
  call void (ptr, ...) @cli_dbgmsg(ptr noundef @.str.198)
  store i32 1, ptr %5, align 4
  br label %79

27:                                               ; preds = %4
  %28 = load ptr, ptr %11, align 8
  %29 = load i16, ptr %8, align 2
  %30 = zext i16 %29 to i64
  %31 = getelementptr inbounds i32, ptr %28, i64 %30
  store ptr %31, ptr %10, align 8
  store i32 0, ptr %12, align 4
  br label %32

32:                                               ; preds = %71, %27
  %33 = load i32, ptr %12, align 4
  %34 = load i16, ptr %8, align 2
  %35 = zext i16 %34 to i32
  %36 = icmp ult i32 %33, %35
  br i1 %36, label %37, label %74

37:                                               ; preds = %32
  %38 = load ptr, ptr %6, align 8
  %39 = load ptr, ptr %10, align 8
  %40 = load i32, ptr %12, align 4
  %41 = zext i32 %40 to i64
  %42 = getelementptr inbounds i32, ptr %39, i64 %41
  %43 = load i32, ptr %42, align 1
  %44 = load ptr, ptr %11, align 8
  %45 = load i32, ptr %12, align 4
  %46 = zext i32 %45 to i64
  %47 = getelementptr inbounds i32, ptr %44, i64 %46
  %48 = load i32, ptr %47, align 1
  %49 = call ptr @getsistring(ptr noundef %38, i32 noundef %43, i32 noundef %48)
  store ptr %49, ptr %14, align 8
  %50 = load ptr, ptr %14, align 8
  %51 = icmp ne ptr %50, null
  br i1 %51, label %52, label %70

52:                                               ; preds = %37
  %53 = load ptr, ptr %14, align 8
  %54 = load ptr, ptr %9, align 8
  %55 = load i32, ptr %12, align 4
  %56 = zext i32 %55 to i64
  %57 = getelementptr inbounds ptr, ptr %54, i64 %56
  %58 = load ptr, ptr %57, align 8
  %59 = load ptr, ptr %10, align 8
  %60 = load i32, ptr %12, align 4
  %61 = zext i32 %60 to i64
  %62 = getelementptr inbounds i32, ptr %59, i64 %61
  %63 = load i32, ptr %62, align 1
  %64 = load ptr, ptr %11, align 8
  %65 = load i32, ptr %12, align 4
  %66 = zext i32 %65 to i64
  %67 = getelementptr inbounds i32, ptr %64, i64 %66
  %68 = load i32, ptr %67, align 1
  call void (ptr, ...) @cli_dbgmsg(ptr noundef @.str.199, ptr noundef %53, ptr noundef %58, i32 noundef %63, i32 noundef %68)
  %69 = load ptr, ptr %14, align 8
  call void @free(ptr noundef %69) #4
  br label %70

70:                                               ; preds = %52, %37
  br label %71

71:                                               ; preds = %70
  %72 = load i32, ptr %12, align 4
  %73 = add i32 %72, 1
  store i32 %73, ptr %12, align 4
  br label %32

74:                                               ; preds = %32
  %75 = load ptr, ptr %6, align 8
  %76 = load i64, ptr %7, align 8
  %77 = load i32, ptr %13, align 4
  %78 = zext i32 %77 to i64
  call void @fmap_unneed_off(ptr noundef %75, i64 noundef %76, i64 noundef %78)
  store i32 1, ptr %5, align 4
  br label %79

79:                                               ; preds = %74, %26
  %80 = load i32, ptr %5, align 4
  ret i32 %80
}