; Function Attrs: nounwind uwtable
define internal fastcc void @spamsisnames(ptr noundef %0, i64 noundef range(i64 0, 38653919236) %1, i16 noundef zeroext %2, ptr noundef nonnull readonly captures(none) %3) unnamed_addr #0 {
  %.tr = zext i16 %2 to i64
  %5 = shl nuw nsw i64 %.tr, 3
  %6 = getelementptr inbounds nuw i8, ptr %0, i64 104
  %7 = load ptr, ptr %6, align 8
  %8 = tail call ptr %7(ptr noundef %0, i64 noundef range(i64 0, 38653919236) %1, i64 noundef range(i64 0, 524281) %5, i32 noundef 1) #8
  %.not = icmp eq ptr %8, null
  br i1 %.not, label %9, label %10

9:                                                ; preds = %4
  tail call void (ptr, ...) @cli_dbgmsg(ptr noundef nonnull @.str.198) #8
  br label %25

10:                                               ; preds = %4
  %11 = getelementptr inbounds nuw i32, ptr %8, i64 %.tr
  %.not30 = icmp eq i16 %2, 0
  br i1 %.not30, label %._crit_edge, label %.lr.ph.preheader

.lr.ph.preheader:                                 ; preds = %10
  %wide.trip.count = zext i16 %2 to i64
  br label %.lr.ph

.lr.ph:                                           ; preds = %.lr.ph.preheader, %22
  %indvars.iv = phi i64 [ 0, %.lr.ph.preheader ], [ %indvars.iv.next, %22 ]
  %12 = getelementptr inbounds nuw i32, ptr %11, i64 %indvars.iv
  %13 = load i32, ptr %12, align 1
  %14 = getelementptr inbounds nuw i32, ptr %8, i64 %indvars.iv
  %15 = load i32, ptr %14, align 1
  %16 = tail call fastcc ptr @getsistring(ptr noundef %0, i32 noundef %13, i32 noundef %15)
  %.not28 = icmp eq ptr %16, null
  br i1 %.not28, label %22, label %17

17:                                               ; preds = %.lr.ph
  %18 = getelementptr inbounds nuw ptr, ptr %3, i64 %indvars.iv
  %19 = load ptr, ptr %18, align 8
  %20 = load i32, ptr %12, align 1
  %21 = load i32, ptr %14, align 1
  tail call void (ptr, ...) @cli_dbgmsg(ptr noundef nonnull @.str.199, ptr noundef nonnull %16, ptr noundef %19, i32 noundef %20, i32 noundef %21) #8
  tail call void @free(ptr noundef nonnull %16) #8
  br label %22

22:                                               ; preds = %.lr.ph, %17
  %indvars.iv.next = add nuw nsw i64 %indvars.iv, 1
  %exitcond.not = icmp eq i64 %indvars.iv.next, %wide.trip.count
  br i1 %exitcond.not, label %._crit_edge, label %.lr.ph

._crit_edge:                                      ; preds = %22, %10
  %23 = getelementptr inbounds nuw i8, ptr %0, i64 128
  %24 = load ptr, ptr %23, align 8
  tail call void %24(ptr noundef %0, i64 noundef range(i64 0, 38653919236) %1, i64 noundef range(i64 0, 524281) %5) #8
  br label %25

25:                                               ; preds = %._crit_edge, %9
  ret void
}